target datalayout = "e-m:e-p270:32:32-p271:32:32-p272:64:64-i64:64-i128:128-f80:128-n8:16:32:64-S128"
target triple = "x86_64-pc-linux-gnu"

%struct.lv_ll_t = type { i32, ptr, ptr }
%struct.lv_area_t = type { i32, i32, i32, i32 }
%struct._lv_display_t = type { i32, i32, i32, i32, i32, i32, i32, ptr, ptr, ptr, ptr, ptr, i32, i32, i8, i32, i16, i32, [32 x %struct.lv_area_t], [32 x i8], i32, i32, %struct.lv_ll_t, %struct._lv_draw_buf_t, %struct._lv_draw_buf_t, ptr, ptr, ptr, ptr, ptr, ptr, ptr, ptr, ptr, ptr, i32, i8, ptr, ptr, %struct.lv_event_list_t, i8, ptr, ptr, i32, %struct.lv_area_t }
%struct._lv_draw_buf_t = type { %struct.lv_image_header_t, i32, ptr, ptr, ptr }
%struct.lv_image_header_t = type <{ i64, i32 }>
%struct.lv_event_list_t = type { %struct._lv_array_t, i8 }
%struct._lv_array_t = type { ptr, i32, i32, i32, i8 }

; Function Attrs: nounwind uwtable
define void @lv_obj_dump_tree(ptr noundef %0) #0 {
  %2 = alloca ptr, align 8
  %3 = alloca ptr, align 8
  %4 = alloca i32, align 4
  store ptr %0, ptr %2, align 8, !tbaa !3
  %5 = load ptr, ptr %2, align 8, !tbaa !3
  %6 = icmp eq ptr %5, null
  br i1 %6, label %7, label %34

7:                                                ; preds = %1
  call void @llvm.lifetime.start.p0(i64 8, ptr %3) #3
  %8 = call ptr @lv_display_get_next(ptr noundef null)
  store ptr %8, ptr %3, align 8, !tbaa !8
  br label %9

9:                                                ; preds = %30, %7
  %10 = load ptr, ptr %3, align 8, !tbaa !8
  %11 = icmp ne ptr %10, null
  br i1 %11, label %12, label %33

12:                                               ; preds = %9
  call void @llvm.lifetime.start.p0(i64 4, ptr %4) #3
  store i32 0, ptr %4, align 4, !tbaa !37
  br label %13

13:                                               ; preds = %27, %12
  %14 = load i32, ptr %4, align 4, !tbaa !37
  %15 = load ptr, ptr %3, align 8, !tbaa !8
  %16 = getelementptr inbounds nuw %struct._lv_display_t, ptr %15, i32 0, i32 35
  %17 = load i32, ptr %16, align 8, !tbaa !38
  %18 = icmp ult i32 %14, %17
  br i1 %18, label %19, label %30

19:                                               ; preds = %13
  %20 = load ptr, ptr %3, align 8, !tbaa !8
  %21 = getelementptr inbounds nuw %struct._lv_display_t, ptr %20, i32 0, i32 28
  %22 = load ptr, ptr %21, align 8, !tbaa !39
  %23 = load i32, ptr %4, align 4, !tbaa !37
  %24 = zext i32 %23 to i64
  %25 = getelementptr inbounds nuw ptr, ptr %22, i64 %24
  %26 = load ptr, ptr %25, align 8, !tbaa !3
  call void @dump_tree_core(ptr noundef %26, i32 noundef 0)
  br label %27

27:                                               ; preds = %19
  %28 = load i32, ptr %4, align 4, !tbaa !37
  %29 = add i32 %28, 1
  store i32 %29, ptr %4, align 4, !tbaa !37
  br label %13, !llvm.loop !91

30:                                               ; preds = %13
  %31 = load ptr, ptr %3, align 8, !tbaa !8
  %32 = call ptr @lv_display_get_next(ptr noundef %31)
  store ptr %32, ptr %3, align 8, !tbaa !8
  call void @llvm.lifetime.end.p0(i64 4, ptr %4) #3
  br label %9, !llvm.loop !92

33:                                               ; preds = %9
  call void @llvm.lifetime.end.p0(i64 8, ptr %3) #3
  br label %36

34:                                               ; preds = %1
  %35 = load ptr, ptr %2, align 8, !tbaa !3
  call void @dump_tree_core(ptr noundef %35, i32 noundef 0)
  br label %36

36:                                               ; preds = %34, %33
  ret void
}