; Function Attrs: nounwind uwtable
define void @lv_obj_dump_tree(ptr noundef readonly captures(address_is_null) %0) local_unnamed_addr #0 {
  %2 = icmp eq ptr %0, null
  br i1 %2, label %3, label %13

3:                                                ; preds = %1
  %4 = tail call ptr @lv_display_get_next(ptr noundef null) #6
  %.not11 = icmp eq ptr %4, null
  br i1 %.not11, label %.loopexit, label %.preheader

.preheader:                                       ; preds = %3, %._crit_edge
  %.0812 = phi ptr [ %12, %._crit_edge ], [ %4, %3 ]
  %5 = getelementptr inbounds nuw i8, ptr %.0812, i64 832
  %6 = load i32, ptr %5, align 8, !tbaa !15
  %.not13 = icmp eq i32 %6, 0
  br i1 %.not13, label %._crit_edge, label %.lr.ph

.lr.ph:                                           ; preds = %.preheader
  %7 = getelementptr inbounds nuw i8, ptr %.0812, i64 776
  %8 = load ptr, ptr %7, align 8, !tbaa !30
  %wide.trip.count = zext i32 %6 to i64
  br label %9

9:                                                ; preds = %.lr.ph, %9
  %indvars.iv = phi i64 [ 0, %.lr.ph ], [ %indvars.iv.next, %9 ]
  %10 = getelementptr inbounds nuw ptr, ptr %8, i64 %indvars.iv
  %11 = load ptr, ptr %10, align 8, !tbaa !33
  tail call fastcc void @dump_tree_core(ptr noundef %11, i32 noundef 0)
  %indvars.iv.next = add nuw nsw i64 %indvars.iv, 1
  %exitcond.not = icmp eq i64 %indvars.iv.next, %wide.trip.count
  br i1 %exitcond.not, label %._crit_edge, label %9, !llvm.loop !76

._crit_edge:                                      ; preds = %9, %.preheader
  %12 = tail call ptr @lv_display_get_next(ptr noundef nonnull %.0812) #6
  %.not = icmp eq ptr %12, null
  br i1 %.not, label %.loopexit, label %.preheader, !llvm.loop !77

13:                                               ; preds = %1
  tail call fastcc void @dump_tree_core(ptr noundef nonnull %0, i32 noundef 0)
  br label %.loopexit

.loopexit:                                        ; preds = %._crit_edge, %3, %13
  ret void
}